target datalayout = "e-m:e-p270:32:32-p271:32:32-p272:64:64-i64:64-i128:128-f80:128-n8:16:32:64-S128"
target triple = "x86_64-pc-linux-gnu"

; Function Attrs: mustprogress uwtable
define noundef ptr @_Z18coco_string_createPKc(ptr noundef %0) #1 {
  %2 = alloca ptr, align 8
  %3 = alloca i32, align 4
  %4 = alloca ptr, align 8
  %5 = alloca i32, align 4
  store ptr %0, ptr %2, align 8
  store i32 0, ptr %3, align 4
  %6 = load ptr, ptr %2, align 8
  %7 = icmp ne ptr %6, null
  br i1 %7, label %8, label %12

8:                                                ; preds = %1
  %9 = load ptr, ptr %2, align 8
  %10 = call i64 @strlen(ptr noundef %9) #16
  %11 = trunc i64 %10 to i32
  store i32 %11, ptr %3, align 4
  br label %12

12:                                               ; preds = %8, %1
  %13 = load i32, ptr %3, align 4
  %14 = add nsw i32 %13, 1
  %15 = sext i32 %14 to i64
  %16 = call { i64, i1 } @llvm.umul.with.overflow.i64(i64 %15, i64 4)
  %17 = extractvalue { i64, i1 } %16, 1
  %18 = extractvalue { i64, i1 } %16, 0
  %19 = select i1 %17, i64 -1, i64 %18
  %20 = call noalias noundef nonnull ptr @_Znam(i64 noundef %19) #14
  store ptr %20, ptr %4, align 8
  store i32 0, ptr %5, align 4
  br label %21

21:                                               ; preds = %36, %12
  %22 = load i32, ptr %5, align 4
  %23 = load i32, ptr %3, align 4
  %24 = icmp slt i32 %22, %23
  br i1 %24, label %25, label %39

25:                                               ; preds = %21
  %26 = load ptr, ptr %2, align 8
  %27 = load i32, ptr %5, align 4
  %28 = sext i32 %27 to i64
  %29 = getelementptr inbounds i8, ptr %26, i64 %28
  %30 = load i8, ptr %29, align 1
  %31 = sext i8 %30 to i32
  %32 = load ptr, ptr %4, align 8
  %33 = load i32, ptr %5, align 4
  %34 = sext i32 %33 to i64
  %35 = getelementptr inbounds i32, ptr %32, i64 %34
  store i32 %31, ptr %35, align 4
  br label %36

36:                                               ; preds = %25
  %37 = load i32, ptr %5, align 4
  %38 = add nsw i32 %37, 1
  store i32 %38, ptr %5, align 4
  br label %21, !llvm.loop !12

39:                                               ; preds = %21
  %40 = load ptr, ptr %4, align 8
  %41 = load i32, ptr %3, align 4
  %42 = sext i32 %41 to i64
  %43 = getelementptr inbounds i32, ptr %40, i64 %42
  store i32 0, ptr %43, align 4
  %44 = load ptr, ptr %4, align 8
  ret ptr %44
}