; Function Attrs: mustprogress uwtable
define noalias noundef nonnull ptr @_Z18coco_string_createPKc(ptr noundef readonly %0) local_unnamed_addr #2 {
  %.not = icmp eq ptr %0, null
  br i1 %.not, label %.thread.thread, label %.thread

.thread.thread:                                   ; preds = %1
  %2 = tail call noalias noundef nonnull dereferenceable(4) ptr @_Znam(i64 noundef 4) #21
  br label %._crit_edge

.thread:                                          ; preds = %1
  %3 = tail call i64 @strlen(ptr noundef nonnull dereferenceable(1) %0) #24
  %.fr17 = freeze i64 %3
  %4 = trunc i64 %.fr17 to i32
  %5 = shl i64 %.fr17, 32
  %sext = add i64 %5, 4294967296
  %6 = icmp slt i32 %4, -1
  %7 = ashr exact i64 %sext, 30
  %spec.select = select i1 %6, i64 -1, i64 %7
  %8 = tail call noalias noundef nonnull ptr @_Znam(i64 noundef %spec.select) #21
  %9 = icmp sgt i32 %4, 0
  br i1 %9, label %.lr.ph.preheader, label %._crit_edge

.lr.ph.preheader:                                 ; preds = %.thread
  %wide.trip.count = and i64 %.fr17, 2147483647
  br label %.lr.ph

.lr.ph:                                           ; preds = %.lr.ph.preheader, %.lr.ph
  %indvars.iv = phi i64 [ 0, %.lr.ph.preheader ], [ %indvars.iv.next, %.lr.ph ]
  %10 = getelementptr inbounds i8, ptr %0, i64 %indvars.iv
  %11 = load i8, ptr %10, align 1
  %12 = sext i8 %11 to i32
  %13 = getelementptr inbounds i32, ptr %8, i64 %indvars.iv
  store i32 %12, ptr %13, align 4
  %indvars.iv.next = add nuw nsw i64 %indvars.iv, 1
  %exitcond.not = icmp eq i64 %indvars.iv.next, %wide.trip.count
  br i1 %exitcond.not, label %._crit_edge, label %.lr.ph, !llvm.loop !12

._crit_edge:                                      ; preds = %.lr.ph, %.thread.thread, %.thread
  %14 = phi ptr [ %2, %.thread.thread ], [ %8, %.thread ], [ %8, %.lr.ph ]
  %.0121621 = phi i64 [ 0, %.thread.thread ], [ %.fr17, %.thread ], [ %.fr17, %.lr.ph ]
  %sext22 = shl i64 %.0121621, 32
  %15 = ashr exact i64 %sext22, 32
  %16 = getelementptr inbounds i32, ptr %14, i64 %15
  store i32 0, ptr %16, align 4
  ret ptr %14
}